target datalayout = "e-m:e-p270:32:32-p271:32:32-p272:64:64-i64:64-i128:128-f80:128-n8:16:32:64-S128"
target triple = "x86_64-pc-linux-gnu"

@NewSizeThreadIncrease = external global i64, align 8

; Function Attrs: mustprogress nounwind uwtable
define hidden noundef i64 @_ZNK16DefNewGeneration30calculate_thread_increase_sizeEi(ptr noundef nonnull align 8 dereferenceable(744) %0, i32 noundef %1) #1 align 2 {
  %3 = alloca ptr, align 8
  %4 = alloca i32, align 4
  %5 = alloca i64, align 8
  store ptr %0, ptr %3, align 8
  store i32 %1, ptr %4, align 4
  store i64 0, ptr %5, align 8
  %6 = load i32, ptr %4, align 4
  %7 = icmp sgt i32 %6, 0
  br i1 %7, label %8, label %19

8:                                                ; preds = %2
  %9 = load i64, ptr @NewSizeThreadIncrease, align 8
  %10 = load i32, ptr %4, align 4
  %11 = sext i32 %10 to i64
  %12 = udiv i64 -1, %11
  %13 = icmp ule i64 %9, %12
  br i1 %13, label %14, label %19

14:                                               ; preds = %8
  %15 = load i32, ptr %4, align 4
  %16 = sext i32 %15 to i64
  %17 = load i64, ptr @NewSizeThreadIncrease, align 8
  %18 = mul i64 %16, %17
  store i64 %18, ptr %5, align 8
  br label %19

19:                                               ; preds = %14, %8, %2
  %20 = load i64, ptr %5, align 8
  ret i64 %20
}