; Function Attrs: mustprogress nofree norecurse nosync nounwind willreturn memory(read, argmem: none, inaccessiblemem: none) uwtable
define hidden noundef i64 @_ZNK16DefNewGeneration30calculate_thread_increase_sizeEi(ptr nocapture noundef nonnull readnone align 8 dereferenceable(744) %0, i32 noundef %1) local_unnamed_addr #5 align 2 {
  %3 = icmp sgt i32 %1, 0
  br i1 %3, label %4, label %8

4:                                                ; preds = %2
  %5 = load i64, ptr @NewSizeThreadIncrease, align 8
  %6 = zext nneg i32 %1 to i64
  %mul = tail call { i64, i1 } @llvm.umul.with.overflow.i64(i64 %6, i64 %5)
  %mul.ov = extractvalue { i64, i1 } %mul, 1
  %7 = mul i64 %5, %6
  %spec.select = select i1 %mul.ov, i64 0, i64 %7
  br label %8

8:                                                ; preds = %4, %2
  %.0 = phi i64 [ 0, %2 ], [ %spec.select, %4 ]
  ret i64 %.0
}